target datalayout = "e-m:e-p270:32:32-p271:32:32-p272:64:64-i64:64-i128:128-f80:128-n8:16:32:64-S128"
target triple = "x86_64-pc-linux-gnu"

%class.vtkSmartPointerBase = type { ptr }
%class.vtkSmartPointer.130 = type { %class.vtkSmartPointerBase }
%class.anon.230 = type { %class.vtkSmartPointer.130 }

; Function Attrs: mustprogress ssp uwtable
define linkonce_odr void @_ZN15vtkSmartPointerI12vtkDataArrayEC2ERKS1_(ptr noundef nonnull align 8 dereferenceable(8) %0, ptr noundef nonnull align 8 dereferenceable(8) %1) unnamed_addr #6 comdat align 2 {
  %3 = alloca ptr, align 8
  %4 = alloca ptr, align 8
  store ptr %0, ptr %3, align 8, !tbaa !910
  store ptr %1, ptr %4, align 8, !tbaa !910
  %5 = load ptr, ptr %3, align 8
  %6 = load ptr, ptr %4, align 8, !tbaa !910
  call void @_ZN19vtkSmartPointerBaseC2ERKS_(ptr noundef nonnull align 8 dereferenceable(8) %5, ptr noundef nonnull align 8 dereferenceable(8) %6)
  ret void
}

; Function Attrs: inlinehint mustprogress ssp uwtable
define internal void @_ZZN6open3d1t8geometry8vtkutils12_GLOBAL__N_134CreateTensorFromVtkDataArrayWorkerclI23vtkAOSDataArrayTemplateIiEEEvPT_ENUlPvE_C2ERKSB_(ptr noundef nonnull align 8 dereferenceable(8) %0, ptr noundef nonnull align 8 dereferenceable(8) %1) unnamed_addr #18 align 2 {
  %3 = alloca ptr, align 8
  %4 = alloca ptr, align 8
  store ptr %0, ptr %3, align 8, !tbaa !86
  store ptr %1, ptr %4, align 8, !tbaa !86
  %5 = load ptr, ptr %3, align 8
  %6 = getelementptr inbounds nuw %class.anon.230, ptr %5, i32 0, i32 0
  %7 = load ptr, ptr %4, align 8, !tbaa !86
  %8 = getelementptr inbounds nuw %class.anon.230, ptr %7, i32 0, i32 0
  call void @_ZN15vtkSmartPointerI12vtkDataArrayEC2ERKS1_(ptr noundef nonnull align 8 dereferenceable(8) %6, ptr noundef nonnull align 8 dereferenceable(8) %8)
  ret void
}

; Function Attrs: inlinehint mustprogress nounwind ssp uwtable
define internal void @_ZZN6open3d1t8geometry8vtkutils12_GLOBAL__N_134CreateTensorFromVtkDataArrayWorkerclI23vtkAOSDataArrayTemplateIiEEEvPT_ENUlPvE_D2Ev(ptr noundef nonnull align 8 dereferenceable(8) %0) unnamed_addr #9 align 2 {
  %2 = alloca ptr, align 8
  store ptr %0, ptr %2, align 8, !tbaa !86
  %3 = load ptr, ptr %2, align 8
  %4 = getelementptr inbounds nuw %class.anon.230, ptr %3, i32 0, i32 0
  call void @_ZN19vtkSmartPointerBaseD2Ev(ptr noundef nonnull align 8 dereferenceable(8) %4) #3
  ret void
}

; Function Attrs: mustprogress ssp uwtable
define internal void @_ZNSt14_Function_base13_Base_managerIZN6open3d1t8geometry8vtkutils12_GLOBAL__N_134CreateTensorFromVtkDataArrayWorkerclI23vtkAOSDataArrayTemplateIiEEEvPT_EUlPvE_E9_M_createIRKSD_EEvRSt9_Any_dataOSA_St17integral_constantIbLb0EE(ptr noundef nonnull align 8 dereferenceable(16) %0, ptr noundef nonnull align 8 dereferenceable(8) %1) #6 align 2 personality ptr @__gxx_personality_v0 {
  %3 = alloca ptr, align 8
  %4 = alloca ptr, align 8
  %5 = alloca ptr, align 8
  %6 = alloca i32, align 4
  store ptr %0, ptr %3, align 8, !tbaa !1067
  store ptr %1, ptr %4, align 8, !tbaa !86
  %7 = call noalias noundef nonnull ptr @_Znwm(i64 noundef 8) #31
  %8 = load ptr, ptr %4, align 8, !tbaa !86
  invoke void @_ZZN6open3d1t8geometry8vtkutils12_GLOBAL__N_134CreateTensorFromVtkDataArrayWorkerclI23vtkAOSDataArrayTemplateIiEEEvPT_ENUlPvE_C2ERKSB_(ptr noundef nonnull align 8 dereferenceable(8) %7, ptr noundef nonnull align 8 dereferenceable(8) %8)
          to label %9 unwind label %12

9:                                                ; preds = %2
  %10 = load ptr, ptr %3, align 8, !tbaa !1067
  %11 = call noundef nonnull align 8 dereferenceable(8) ptr @_ZNSt9_Any_data9_M_accessIPZN6open3d1t8geometry8vtkutils12_GLOBAL__N_134CreateTensorFromVtkDataArrayWorkerclI23vtkAOSDataArrayTemplateIiEEEvPT_EUlPvE_EERSA_v(ptr noundef nonnull align 8 dereferenceable(16) %10) #3
  store ptr %7, ptr %11, align 8, !tbaa !86
  ret void

12:                                               ; preds = %2
  %13 = landingpad { ptr, i32 }
          cleanup
  %14 = extractvalue { ptr, i32 } %13, 0
  store ptr %14, ptr %5, align 8
  %15 = extractvalue { ptr, i32 } %13, 1
  store i32 %15, ptr %6, align 4
  call void @_ZdlPvm(ptr noundef %7, i64 noundef 8) #33
  br label %16

16:                                               ; preds = %12
  %17 = load ptr, ptr %5, align 8
  %18 = load i32, ptr %6, align 4
  %19 = insertvalue { ptr, i32 } poison, ptr %17, 0
  %20 = insertvalue { ptr, i32 } %19, i32 %18, 1
  resume { ptr, i32 } %20
}

; Function Attrs: mustprogress nounwind ssp uwtable
define linkonce_odr noundef ptr @_ZNKSt9_Any_data9_M_accessEv(ptr noundef nonnull align 8 dereferenceable(16) %0) #4 comdat align 2 {
  %2 = alloca ptr, align 8
  store ptr %0, ptr %2, align 8, !tbaa !1067
  %3 = load ptr, ptr %2, align 8
  %4 = getelementptr inbounds [16 x i8], ptr %3, i64 0, i64 0
  ret ptr %4
}

; Function Attrs: mustprogress nounwind ssp uwtable
define internal void @_ZNSt14_Function_base13_Base_managerIZN6open3d1t8geometry8vtkutils12_GLOBAL__N_134CreateTensorFromVtkDataArrayWorkerclI23vtkAOSDataArrayTemplateIiEEEvPT_EUlPvE_E10_M_destroyERSt9_Any_dataSt17integral_constantIbLb0EE(ptr noundef nonnull align 8 dereferenceable(16) %0) #4 align 2 {
  %2 = alloca ptr, align 8
  store ptr %0, ptr %2, align 8, !tbaa !1067
  %3 = load ptr, ptr %2, align 8, !tbaa !1067
  %4 = call noundef nonnull align 8 dereferenceable(8) ptr @_ZNSt9_Any_data9_M_accessIPZN6open3d1t8geometry8vtkutils12_GLOBAL__N_134CreateTensorFromVtkDataArrayWorkerclI23vtkAOSDataArrayTemplateIiEEEvPT_EUlPvE_EERSA_v(ptr noundef nonnull align 8 dereferenceable(16) %3) #3
  %5 = load ptr, ptr %4, align 8, !tbaa !86
  %6 = icmp eq ptr %5, null
  br i1 %6, label %8, label %7

7:                                                ; preds = %1
  call void @_ZZN6open3d1t8geometry8vtkutils12_GLOBAL__N_134CreateTensorFromVtkDataArrayWorkerclI23vtkAOSDataArrayTemplateIiEEEvPT_ENUlPvE_D2Ev(ptr noundef nonnull align 8 dereferenceable(8) %5) #3
  call void @_ZdlPvm(ptr noundef %5, i64 noundef 8) #33
  br label %8

8:                                                ; preds = %7, %1
  ret void
}

; Function Attrs: mustprogress ssp uwtable
define internal void @_ZNSt14_Function_base13_Base_managerIZN6open3d1t8geometry8vtkutils12_GLOBAL__N_134CreateTensorFromVtkDataArrayWorkerclI23vtkAOSDataArrayTemplateIiEEEvPT_EUlPvE_E15_M_init_functorIRKSD_EEvRSt9_Any_dataOSA_(ptr noundef nonnull align 8 dereferenceable(16) %0, ptr noundef nonnull align 8 dereferenceable(8) %1) #6 align 2 {
  %3 = alloca ptr, align 8
  %4 = alloca ptr, align 8
  store ptr %0, ptr %3, align 8, !tbaa !1067
  store ptr %1, ptr %4, align 8, !tbaa !86
  %5 = load ptr, ptr %3, align 8, !tbaa !1067
  %6 = load ptr, ptr %4, align 8, !tbaa !86
  call void @_ZNSt14_Function_base13_Base_managerIZN6open3d1t8geometry8vtkutils12_GLOBAL__N_134CreateTensorFromVtkDataArrayWorkerclI23vtkAOSDataArrayTemplateIiEEEvPT_EUlPvE_E9_M_createIRKSD_EEvRSt9_Any_dataOSA_St17integral_constantIbLb0EE(ptr noundef nonnull align 8 dereferenceable(16) %5, ptr noundef nonnull align 8 dereferenceable(8) %6)
  ret void
}

; Function Attrs: mustprogress nounwind ssp uwtable
define internal noundef nonnull align 8 dereferenceable(8) ptr @_ZNKSt9_Any_data9_M_accessIPZN6open3d1t8geometry8vtkutils12_GLOBAL__N_134CreateTensorFromVtkDataArrayWorkerclI23vtkAOSDataArrayTemplateIiEEEvPT_EUlPvE_EERKSA_v(ptr noundef nonnull align 8 dereferenceable(16) %0) #4 align 2 {
  %2 = alloca ptr, align 8
  store ptr %0, ptr %2, align 8, !tbaa !1067
  %3 = load ptr, ptr %2, align 8
  %4 = call noundef ptr @_ZNKSt9_Any_data9_M_accessEv(ptr noundef nonnull align 8 dereferenceable(16) %3) #3
  ret ptr %4
}

; Function Attrs: mustprogress nounwind ssp uwtable
define linkonce_odr noundef ptr @_ZNSt9_Any_data9_M_accessEv(ptr noundef nonnull align 8 dereferenceable(16) %0) #4 comdat align 2 {
  %2 = alloca ptr, align 8
  store ptr %0, ptr %2, align 8, !tbaa !1067
  %3 = load ptr, ptr %2, align 8
  %4 = getelementptr inbounds [16 x i8], ptr %3, i64 0, i64 0
  ret ptr %4
}

; Function Attrs: mustprogress ssp uwtable
define internal noundef zeroext i1 @_ZNSt14_Function_base13_Base_managerIZN6open3d1t8geometry8vtkutils12_GLOBAL__N_134CreateTensorFromVtkDataArrayWorkerclI23vtkAOSDataArrayTemplateIiEEEvPT_EUlPvE_E10_M_managerERSt9_Any_dataRKSF_St18_Manager_operation(ptr noundef nonnull align 8 dereferenceable(16) %0, ptr noundef nonnull align 8 dereferenceable(16) %1, i32 noundef %2) #6 align 2 {
  %4 = alloca ptr, align 8
  %5 = alloca ptr, align 8
  %6 = alloca i32, align 4
  store ptr %0, ptr %4, align 8, !tbaa !1067
  store ptr %1, ptr %5, align 8, !tbaa !1067
  store i32 %2, ptr %6, align 4, !tbaa !1069
  %7 = load i32, ptr %6, align 4, !tbaa !1069
  switch i32 %7, label %22 [
    i32 0, label %8
    i32 1, label %11
    i32 2, label %16
    i32 3, label %20
  ]

8:                                                ; preds = %3
  %9 = load ptr, ptr %4, align 8, !tbaa !1067
  %10 = call noundef nonnull align 8 dereferenceable(8) ptr @_ZNSt9_Any_data9_M_accessIPKSt9type_infoEERT_v(ptr noundef nonnull align 8 dereferenceable(16) %9) #3
  store ptr @_ZTIZN6open3d1t8geometry8vtkutils12_GLOBAL__N_134CreateTensorFromVtkDataArrayWorkerclI23vtkAOSDataArrayTemplateIiEEEvPT_EUlPvE_, ptr %10, align 8, !tbaa !1043
  br label %22

11:                                               ; preds = %3
  %12 = load ptr, ptr %5, align 8, !tbaa !1067
  %13 = call noundef ptr @_ZNSt14_Function_base13_Base_managerIZN6open3d1t8geometry8vtkutils12_GLOBAL__N_134CreateTensorFromVtkDataArrayWorkerclI23vtkAOSDataArrayTemplateIiEEEvPT_EUlPvE_E14_M_get_pointerERKSt9_Any_data(ptr noundef nonnull align 8 dereferenceable(16) %12) #3
  %14 = load ptr, ptr %4, align 8, !tbaa !1067
  %15 = call noundef nonnull align 8 dereferenceable(8) ptr @_ZNSt9_Any_data9_M_accessIPZN6open3d1t8geometry8vtkutils12_GLOBAL__N_134CreateTensorFromVtkDataArrayWorkerclI23vtkAOSDataArrayTemplateIiEEEvPT_EUlPvE_EERSA_v(ptr noundef nonnull align 8 dereferenceable(16) %14) #3
  store ptr %13, ptr %15, align 8, !tbaa !86
  br label %22

16:                                               ; preds = %3
  %17 = load ptr, ptr %4, align 8, !tbaa !1067
  %18 = load ptr, ptr %5, align 8, !tbaa !1067
  %19 = call noundef ptr @_ZNSt14_Function_base13_Base_managerIZN6open3d1t8geometry8vtkutils12_GLOBAL__N_134CreateTensorFromVtkDataArrayWorkerclI23vtkAOSDataArrayTemplateIiEEEvPT_EUlPvE_E14_M_get_pointerERKSt9_Any_data(ptr noundef nonnull align 8 dereferenceable(16) %18) #3
  call void @_ZNSt14_Function_base13_Base_managerIZN6open3d1t8geometry8vtkutils12_GLOBAL__N_134CreateTensorFromVtkDataArrayWorkerclI23vtkAOSDataArrayTemplateIiEEEvPT_EUlPvE_E15_M_init_functorIRKSD_EEvRSt9_Any_dataOSA_(ptr noundef nonnull align 8 dereferenceable(16) %17, ptr noundef nonnull align 8 dereferenceable(8) %19)
  br label %22

20:                                               ; preds = %3
  %21 = load ptr, ptr %4, align 8, !tbaa !1067
  call void @_ZNSt14_Function_base13_Base_managerIZN6open3d1t8geometry8vtkutils12_GLOBAL__N_134CreateTensorFromVtkDataArrayWorkerclI23vtkAOSDataArrayTemplateIiEEEvPT_EUlPvE_E10_M_destroyERSt9_Any_dataSt17integral_constantIbLb0EE(ptr noundef nonnull align 8 dereferenceable(16) %21)
  br label %22

22:                                               ; preds = %3, %20, %16, %11, %8
  ret i1 false
}

; Function Attrs: mustprogress nounwind ssp uwtable
define internal noundef nonnull align 8 dereferenceable(8) ptr @_ZNSt9_Any_data9_M_accessIPZN6open3d1t8geometry8vtkutils12_GLOBAL__N_134CreateTensorFromVtkDataArrayWorkerclI23vtkAOSDataArrayTemplateIiEEEvPT_EUlPvE_EERSA_v(ptr noundef nonnull align 8 dereferenceable(16) %0) #4 align 2 {
  %2 = alloca ptr, align 8
  store ptr %0, ptr %2, align 8, !tbaa !1067
  %3 = load ptr, ptr %2, align 8
  %4 = call noundef ptr @_ZNSt9_Any_data9_M_accessEv(ptr noundef nonnull align 8 dereferenceable(16) %3) #3
  ret ptr %4
}

; Function Attrs: mustprogress nounwind ssp uwtable
define internal noundef ptr @_ZNSt14_Function_base13_Base_managerIZN6open3d1t8geometry8vtkutils12_GLOBAL__N_134CreateTensorFromVtkDataArrayWorkerclI23vtkAOSDataArrayTemplateIiEEEvPT_EUlPvE_E14_M_get_pointerERKSt9_Any_data(ptr noundef nonnull align 8 dereferenceable(16) %0) #4 align 2 {
  %2 = alloca ptr, align 8
  store ptr %0, ptr %2, align 8, !tbaa !1067
  %3 = load ptr, ptr %2, align 8, !tbaa !1067
  %4 = call noundef nonnull align 8 dereferenceable(8) ptr @_ZNKSt9_Any_data9_M_accessIPZN6open3d1t8geometry8vtkutils12_GLOBAL__N_134CreateTensorFromVtkDataArrayWorkerclI23vtkAOSDataArrayTemplateIiEEEvPT_EUlPvE_EERKSA_v(ptr noundef nonnull align 8 dereferenceable(16) %3) #3
  %5 = load ptr, ptr %4, align 8, !tbaa !86
  ret ptr %5
}

; Function Attrs: mustprogress nounwind ssp uwtable
define linkonce_odr noundef nonnull align 8 dereferenceable(8) ptr @_ZNSt9_Any_data9_M_accessIPKSt9type_infoEERT_v(ptr noundef nonnull align 8 dereferenceable(16) %0) #4 comdat align 2 {
  %2 = alloca ptr, align 8
  store ptr %0, ptr %2, align 8, !tbaa !1067
  %3 = load ptr, ptr %2, align 8
  %4 = call noundef ptr @_ZNSt9_Any_data9_M_accessEv(ptr noundef nonnull align 8 dereferenceable(16) %3) #3
  ret ptr %4
}

; Function Attrs: mustprogress ssp uwtable
define internal noundef zeroext i1 @_ZNSt17_Function_handlerIFvPvEZN6open3d1t8geometry8vtkutils12_GLOBAL__N_134CreateTensorFromVtkDataArrayWorkerclI23vtkAOSDataArrayTemplateIiEEEvPT_EUlS0_E_E10_M_managerERSt9_Any_dataRKSF_St18_Manager_operation(ptr noundef nonnull align 8 dereferenceable(16) %0, ptr noundef nonnull align 8 dereferenceable(16) %1, i32 noundef %2) #6 align 2 {
  %4 = alloca ptr, align 8
  %5 = alloca ptr, align 8
  %6 = alloca i32, align 4
  store ptr %0, ptr %4, align 8, !tbaa !1067
  store ptr %1, ptr %5, align 8, !tbaa !1067
  store i32 %2, ptr %6, align 4, !tbaa !1069
  %7 = load i32, ptr %6, align 4, !tbaa !1069
  switch i32 %7, label %16 [
    i32 0, label %8
    i32 1, label %11
  ]

8:                                                ; preds = %3
  %9 = load ptr, ptr %4, align 8, !tbaa !1067
  %10 = call noundef nonnull align 8 dereferenceable(8) ptr @_ZNSt9_Any_data9_M_accessIPKSt9type_infoEERT_v(ptr noundef nonnull align 8 dereferenceable(16) %9) #3
  store ptr @_ZTIZN6open3d1t8geometry8vtkutils12_GLOBAL__N_134CreateTensorFromVtkDataArrayWorkerclI23vtkAOSDataArrayTemplateIiEEEvPT_EUlPvE_, ptr %10, align 8, !tbaa !1043
  br label %21

11:                                               ; preds = %3
  %12 = load ptr, ptr %5, align 8, !tbaa !1067
  %13 = call noundef ptr @_ZNSt14_Function_base13_Base_managerIZN6open3d1t8geometry8vtkutils12_GLOBAL__N_134CreateTensorFromVtkDataArrayWorkerclI23vtkAOSDataArrayTemplateIiEEEvPT_EUlPvE_E14_M_get_pointerERKSt9_Any_data(ptr noundef nonnull align 8 dereferenceable(16) %12) #3
  %14 = load ptr, ptr %4, align 8, !tbaa !1067
  %15 = call noundef nonnull align 8 dereferenceable(8) ptr @_ZNSt9_Any_data9_M_accessIPZN6open3d1t8geometry8vtkutils12_GLOBAL__N_134CreateTensorFromVtkDataArrayWorkerclI23vtkAOSDataArrayTemplateIiEEEvPT_EUlPvE_EERSA_v(ptr noundef nonnull align 8 dereferenceable(16) %14) #3
  store ptr %13, ptr %15, align 8, !tbaa !86
  br label %21

16:                                               ; preds = %3
  %17 = load ptr, ptr %4, align 8, !tbaa !1067
  %18 = load ptr, ptr %5, align 8, !tbaa !1067
  %19 = load i32, ptr %6, align 4, !tbaa !1069
  %20 = call noundef zeroext i1 @_ZNSt14_Function_base13_Base_managerIZN6open3d1t8geometry8vtkutils12_GLOBAL__N_134CreateTensorFromVtkDataArrayWorkerclI23vtkAOSDataArrayTemplateIiEEEvPT_EUlPvE_E10_M_managerERSt9_Any_dataRKSF_St18_Manager_operation(ptr noundef nonnull align 8 dereferenceable(16) %17, ptr noundef nonnull align 8 dereferenceable(16) %18, i32 noundef %19)
  br label %21

21:                                               ; preds = %16, %11, %8
  ret i1 false
}